###############################################################################
#                                                                             #
# IAR ELF Linker V6.30.6.53336/W32 for ARM              24/Feb/2012  19:49:02 #
# Copyright 2007-2012 IAR Systems AB.                                         #
#                                                                             #
#    Output file  =  C:\Documents and Settings\Michael Shimniok\My            #
#                    Documents\IAR Embedded Workbench\arm\examples\NXP\LPC210 #
#                    3\IARMiniDev\UART\Output\Exe\UART.out.tmp                #
#    Map file     =  C:\Documents and Settings\Michael Shimniok\My            #
#                    Documents\IAR Embedded Workbench\arm\examples\NXP\LPC210 #
#                    3\IARMiniDev\UART\Output\List\UART.map                   #
#    Command line =  "C:\Documents and Settings\Michael Shimniok\My           #
#                    Documents\IAR Embedded Workbench\arm\examples\NXP\LPC210 #
#                    3\IARMiniDev\UART\Output\Obj\lpc2xxx_cstartup.o"         #
#                    "C:\Documents and Settings\Michael Shimniok\My           #
#                    Documents\IAR Embedded Workbench\arm\examples\NXP\LPC210 #
#                    3\IARMiniDev\UART\Output\Obj\main.o" --redirect          #
#                    _Printf=_PrintfFull --redirect _Scanf=_ScanfFull -o      #
#                    "C:\Documents and Settings\Michael Shimniok\My           #
#                    Documents\IAR Embedded Workbench\arm\examples\NXP\LPC210 #
#                    3\IARMiniDev\UART\Output\Exe\UART.out.tmp" --map         #
#                    "C:\Documents and Settings\Michael Shimniok\My           #
#                    Documents\IAR Embedded Workbench\arm\examples\NXP\LPC210 #
#                    3\IARMiniDev\UART\Output\List\UART.map" --config         #
#                    "C:\Documents and Settings\Michael Shimniok\My           #
#                    Documents\IAR Embedded Workbench\arm\examples\NXP\LPC210 #
#                    3\IARMiniDev\UART\config\LPC2103_Flash.icf"              #
#                    --semihosting --entry __iar_program_start --vfe          #
#                                                                             #
#                                                                             #
###############################################################################

*******************************************************************************
*** RUNTIME MODEL ATTRIBUTES
***

CppFlavor       = *
__SystemLibrary = DLib


*******************************************************************************
*** PLACEMENT SUMMARY
***

"A1":  place at 0x00000000 { ro section .intvec };
"P1":  place in [from 0x00000000 to 0x000001fb] |
                [from 0x00000200 to 0x00007fff] { ro };
"P2":  place in [from 0x40000000 to 0x4000003f] |
                [from 0x40000120 to 0x40001fdf] {
          rw, block CSTACK, block SVC_STACK, block IRQ_STACK, block FIQ_STACK,
          block UND_STACK, block ABT_STACK, block HEAP };
"P3":  place in [from 0x000001fc to 0x000001ff] { section .crp };

  Section      Kind        Address   Size  Object
  -------      ----        -------   ----  ------
"A1":                                0x40
  .intvec      ro code  0x00000000   0x40  lpc2xxx_cstartup.o [1]
                      - 0x00000040   0x40

"P3":                                 0x4
  .crp         ro code  0x000001fc    0x4  lpc2xxx_cstartup.o [1]
                      - 0x00000200    0x4

"P1":                               0x464
  .text        ro code  0x00000200  0x260  main.o [1]
  Veneer       ro code  0x00000460    0x4  - Linker created -
  .text        ro code  0x00000464   0xb0  ABImemcpy.o [4]
  .text        ro code  0x00000514   0xb0  lpc2xxx_cstartup.o [1]
  Veneer       ro code  0x000005c4    0xc  - Linker created -
  Veneer       ro code  0x000005d0    0xc  - Linker created -
  Veneer       ro code  0x000005dc    0xc  - Linker created -
  .text        ro code  0x000005e8   0x24  cmain.o [4]
  .text        ro code  0x0000060c    0x4  low_level_init.o [3]
  .text        ro code  0x00000610    0xa  exit.o [3]
  .text        ro code  0x0000061c   0x20  exit.o [5]
  Veneer       ro code  0x0000063c    0x4  - Linker created -
  .text        ro code  0x00000640   0x10  cexit.o [4]
  .rodata      const    0x00000650   0x10  main.o [1]
  .text        ro code  0x00000660    0x4  xreturnswi.o [5]
                      - 0x00000664  0x464

"P2":                               0x290
  CSTACK                0x40000120  0x200  <Block>
    CSTACK     uninit   0x40000120  0x200  <Block tail>
  IRQ_STACK             0x40000320   0x50  <Block>
    IRQ_STACK  uninit   0x40000320   0x50  <Block tail>
  SVC_STACK             0x40000370   0x10  <Block>
    SVC_STACK  uninit   0x40000370   0x10  <Block tail>
  FIQ_STACK             0x40000380   0x10  <Block>
    FIQ_STACK  uninit   0x40000380   0x10  <Block tail>
  UND_STACK             0x40000390   0x10  <Block>
    UND_STACK  uninit   0x40000390   0x10  <Block tail>
  ABT_STACK             0x400003a0   0x10  <Block>
    ABT_STACK  uninit   0x400003a0   0x10  <Block tail>
                      - 0x400003b0  0x290

Absolute sections, part 1 of 13:      0x1
  .noinit      uninit   0xe000c000    0x1  main.o [1]
                      - 0xe000c001    0x1

Absolute sections, part 2 of 13:      0x9
  .noinit      uninit   0xe000c004    0x4  main.o [1]
  .noinit      uninit   0xe000c008    0x4  main.o [1]
  .noinit      uninit   0xe000c00c    0x1  main.o [1]
                      - 0xe000c00d    0x9

Absolute sections, part 3 of 13:      0x1
  .noinit      uninit   0xe000c014    0x1  main.o [1]
                      - 0xe000c015    0x1

Absolute sections, part 4 of 13:      0x4
  .noinit      uninit   0xe000c028    0x4  main.o [1]
                      - 0xe000c02c    0x4

Absolute sections, part 5 of 13:      0x1
  .noinit      uninit   0xe0010000    0x1  main.o [1]
                      - 0xe0010001    0x1

Absolute sections, part 6 of 13:      0x9
  .noinit      uninit   0xe0010004    0x4  main.o [1]
  .noinit      uninit   0xe0010008    0x4  main.o [1]
  .noinit      uninit   0xe001000c    0x1  main.o [1]
                      - 0xe001000d    0x9

Absolute sections, part 7 of 13:      0x1
  .noinit      uninit   0xe0010014    0x1  main.o [1]
                      - 0xe0010015    0x1

Absolute sections, part 8 of 13:      0x4
  .noinit      uninit   0xe0010028    0x4  main.o [1]
                      - 0xe001002c    0x4

Absolute sections, part 9 of 13:      0x4
  .noinit      uninit   0xe002c000    0x4  main.o [1]
                      - 0xe002c004    0x4

Absolute sections, part 10 of 13:     0x4
  .noinit      uninit   0xe01fc040    0x4  main.o [1]
                      - 0xe01fc044    0x4

Absolute sections, part 11 of 13:    0x10
  .noinit      uninit   0xe01fc080    0x4  main.o [1]
  .noinit      uninit   0xe01fc084    0x4  main.o [1]
  .noinit      uninit   0xe01fc088    0x4  main.o [1]
  .noinit      uninit   0xe01fc08c    0x4  main.o [1]
                      - 0xe01fc090   0x10

Absolute sections, part 12 of 13:     0x4
  .noinit      uninit   0xe01fc100    0x4  main.o [1]
                      - 0xe01fc104    0x4

Absolute sections, part 13 of 13:     0x4
  .noinit      uninit   0xfffff030    0x4  main.o [1]
                      - 0xfffff034    0x4



*******************************************************************************
*** MODULE SUMMARY
***

    Module              ro code  ro data  rw data  rw data
                                                    (abs)
    ------              -------  -------  -------  -------
C:\Documents and Settings\Michael Shimniok\My Documents\IAR Embedded Workbench\arm\examples\NXP\LPC2103\IARMiniDev\UART\Output\Obj: [1]
    lpc2xxx_cstartup.o      244
    main.o                  608       16                62
    ------------------------------------------------------
    Total:                  852       16                62

command line: [2]
    ------------------------------------------------------
    Total:

dl4t_tln.a: [3]
    exit.o                   10
    low_level_init.o          4
    ------------------------------------------------------
    Total:                   14

rt4t_al.a: [4]
    ABImemcpy.o             176
    cexit.o                  16
    cmain.o                  36
    ------------------------------------------------------
    Total:                  228

shs_l.a: [5]
    exit.o                   32
    xreturnswi.o              4
    ------------------------------------------------------
    Total:                   36

    Gaps                      2
    Linker created           44               656
----------------------------------------------------------
    Grand Total:          1 176       16      656       62


*******************************************************************************
*** ENTRY LIST
***

Entry                     Address  Size  Type      Object
-----                     -------  ----  ----      ------
?main                  0x000005e8        Code  Gb  cmain.o [4]
ABT_STACK$$Base        0x400003a0         --   Gb  - Linker created -
ABT_STACK$$Limit       0x400003b0         --   Gb  - Linker created -
CSTACK$$Base           0x40000120         --   Gb  - Linker created -
CSTACK$$Limit          0x40000320         --   Gb  - Linker created -
FIQ_STACK$$Base        0x40000380         --   Gb  - Linker created -
FIQ_STACK$$Limit       0x40000390         --   Gb  - Linker created -
IRQ_STACK$$Base        0x40000320         --   Gb  - Linker created -
IRQ_STACK$$Limit       0x40000370         --   Gb  - Linker created -
Region$$Table$$Base    0x00000000         --   Gb  - Linker created -
Region$$Table$$Limit   0x00000000         --   Gb  - Linker created -
SVC_STACK$$Base        0x40000370         --   Gb  - Linker created -
SVC_STACK$$Limit       0x40000380         --   Gb  - Linker created -
U0RBRTHR               0xe000c000   0x1  Data  Gb  main.o [1]
U1RBRTHR               0xe0010000   0x1  Data  Gb  main.o [1]
UND_STACK$$Base        0x40000390         --   Gb  - Linker created -
UND_STACK$$Limit       0x400003a0         --   Gb  - Linker created -
VICVectAddr            0xfffff030   0x4  Data  Gb  main.o [1]
_A_APBDIV              0xe01fc100   0x4  Data  Gb  main.o [1]
_A_MEMMAP              0xe01fc040   0x4  Data  Gb  main.o [1]
_A_PINSEL0             0xe002c000   0x4  Data  Gb  main.o [1]
_A_PLLCFG              0xe01fc084   0x4  Data  Gb  main.o [1]
_A_PLLCON              0xe01fc080   0x4  Data  Gb  main.o [1]
_A_PLLFEED             0xe01fc08c   0x4  Data  Gb  main.o [1]
_A_PLLSTAT             0xe01fc088   0x4  Data  Gb  main.o [1]
_A_U0FCR               0xe000c008   0x4  Data  Gb  main.o [1]
_A_U0FDR               0xe000c028   0x4  Data  Gb  main.o [1]
_A_U0IER               0xe000c004   0x4  Data  Gb  main.o [1]
_A_U0LCR               0xe000c00c   0x1  Data  Gb  main.o [1]
_A_U0LSR               0xe000c014   0x1  Data  Gb  main.o [1]
_A_U1FCR               0xe0010008   0x4  Data  Gb  main.o [1]
_A_U1FDR               0xe0010028   0x4  Data  Gb  main.o [1]
_A_U1IER               0xe0010004   0x4  Data  Gb  main.o [1]
_A_U1LCR               0xe001000c   0x1  Data  Gb  main.o [1]
_A_U1LSR               0xe0010014   0x1  Data  Gb  main.o [1]
__aeabi_memcpy4        0x00000464        Code  Gb  ABImemcpy.o [4]
__aeabi_memcpy8        0x00000464        Code  Gb  ABImemcpy.o [4]
__cmain                0x000005e8        Code  Gb  cmain.o [4]
__exit                 0x0000061c  0x20  Code  Gb  exit.o [5]
__iar_program_start    0x00000514        Code  Gb  lpc2xxx_cstartup.o [1]
__iar_return_from_swi  0x00000660   0x4  Code  Gb  xreturnswi.o [5]
__low_level_init       0x0000060d   0x4  Code  Gb  low_level_init.o [3]
__vector               0x00000000        Code  Gb  lpc2xxx_cstartup.o [1]
__vector_0x14          0x00000014        Code  Gb  lpc2xxx_cstartup.o [1]
_call_main             0x000005f8        Code  Gb  cmain.o [4]
_exit                  0x00000640        Code  Gb  cexit.o [4]
_main                  0x00000600        Code  Gb  cmain.o [4]
clockInit              0x000003b5  0x48  Code  Gb  main.o [1]
data_handler           0x0000045c   0x4  Code  Gb  main.o [1]
exit                   0x00000611   0xa  Code  Gb  exit.o [3]
fiq_handler            0x00000450   0x4  Code  Gb  main.o [1]
irq_handler            0x00000200  0x44  Code  Gb  main.o [1]
main                   0x00000245  0x5a  Code  Gb  main.o [1]
prefetch_handler       0x00000458   0x4  Code  Gb  main.o [1]
serialEmptyTX          0x00000383  0x32  Code  Gb  main.o [1]
serialInit             0x0000029f  0xe4  Code  Gb  main.o [1]
undef_handler          0x00000454   0x4  Code  Gb  main.o [1]


[1] = C:\Documents and Settings\Michael Shimniok\My Documents\IAR Embedded Workbench\arm\examples\NXP\LPC2103\IARMiniDev\UART\Output\Obj
[2] = command line
[3] = dl4t_tln.a
[4] = rt4t_al.a
[5] = shs_l.a

  1 176 bytes of readonly  code memory
     16 bytes of readonly  data memory
    656 bytes of readwrite data memory (+ 62 absolute)

Errors: none
Warnings: none
